target datalayout = "e-m:e-p270:32:32-p271:32:32-p272:64:64-i64:64-i128:128-f80:128-n8:16:32:64-S128"
target triple = "x86_64-pc-linux-gnu"

%struct.exr_attr_string_vector_t = type { i32, i32, ptr }
%struct.exr_attr_string_t = type { i32, i32, ptr }
%struct._priv_exr_context_t = type { i8, i8, i8, i8, i8, i8, i8, i8, %struct.exr_attr_string_t, %struct.exr_attr_string_t, ptr, ptr, ptr, ptr, ptr, ptr, ptr, ptr, i32, i32, i32, i32, i32, float, ptr, ptr, ptr, i64, ptr, ptr, i64, i32, i32, i32, i32, %struct._priv_exr_part_t, ptr, ptr, %struct.exr_attribute_list, %union.pthread_mutex_t, i8, i8, [2 x i8], i32 }
%struct._priv_exr_part_t = type { i32, i32, %struct.exr_attribute_list, ptr, ptr, ptr, ptr, ptr, ptr, ptr, ptr, ptr, ptr, ptr, ptr, ptr, ptr, %struct.exr_attr_box2i_t, %struct.exr_attr_box2i_t, i32, i32, i32, float, i32, i32, ptr, ptr, ptr, ptr, i64, i16, i16, i32, i64, i64 }
%struct.exr_attr_box2i_t = type { %struct.exr_attr_v2i_t, %struct.exr_attr_v2i_t }
%struct.exr_attr_v2i_t = type { i32, i32 }
%struct.exr_attribute_list = type { i32, i32, ptr, ptr }
%union.pthread_mutex_t = type { %struct.__pthread_mutex_s }
%struct.__pthread_mutex_s = type { i32, i32, i32, i32, i32, i16, i16, %struct.__pthread_internal_list }
%struct.__pthread_internal_list = type { ptr, ptr }

@.str = private unnamed_addr constant [55 x i8] c"Invalid reference to string vector object to assign to\00", align 1
@.str.1 = private unnamed_addr constant [71 x i8] c"Received request to allocate negative sized string vector (%d entries)\00", align 1
@.str.2 = private unnamed_addr constant [54 x i8] c"Invalid too large size for string vector (%d entries)\00", align 1

; Function Attrs: nounwind uwtable
define hidden i32 @exr_attr_string_vector_init(ptr noundef %0, ptr noundef %1, i32 noundef %2) #0 {
  %4 = alloca i32, align 4
  %5 = alloca ptr, align 8
  %6 = alloca ptr, align 8
  %7 = alloca i32, align 4
  %8 = alloca %struct.exr_attr_string_vector_t, align 8
  %9 = alloca %struct.exr_attr_string_t, align 8
  %10 = alloca i64, align 8
  %11 = alloca i32, align 4
  %12 = alloca i32, align 4
  store ptr %0, ptr %5, align 8, !tbaa !3
  store ptr %1, ptr %6, align 8, !tbaa !8
  store i32 %2, ptr %7, align 4, !tbaa !9
  call void @llvm.lifetime.start.p0(i64 16, ptr %8) #6
  call void @llvm.memset.p0.i64(ptr align 8 %8, i8 0, i64 16, i1 false)
  call void @llvm.lifetime.start.p0(i64 16, ptr %9) #6
  call void @llvm.memset.p0.i64(ptr align 8 %9, i8 0, i64 16, i1 false)
  call void @llvm.lifetime.start.p0(i64 8, ptr %10) #6
  %13 = load i32, ptr %7, align 4, !tbaa !9
  %14 = sext i32 %13 to i64
  %15 = mul i64 %14, 16
  store i64 %15, ptr %10, align 8, !tbaa !11
  %16 = load ptr, ptr %5, align 8, !tbaa !3
  %17 = icmp ne ptr %16, null
  br i1 %17, label %19, label %18

18:                                               ; preds = %3
  store i32 2, ptr %4, align 4
  store i32 1, ptr %11, align 4
  br label %96

19:                                               ; preds = %3
  %20 = load ptr, ptr %6, align 8, !tbaa !8
  %21 = icmp ne ptr %20, null
  br i1 %21, label %28, label %22

22:                                               ; preds = %19
  %23 = load ptr, ptr %5, align 8, !tbaa !3
  %24 = getelementptr inbounds nuw %struct._priv_exr_context_t, ptr %23, i32 0, i32 13
  %25 = load ptr, ptr %24, align 8, !tbaa !13
  %26 = load ptr, ptr %5, align 8, !tbaa !3
  %27 = call i32 %25(ptr noundef %26, i32 noundef 3, ptr noundef @.str)
  store i32 %27, ptr %4, align 4
  store i32 1, ptr %11, align 4
  br label %96

28:                                               ; preds = %19
  %29 = load i32, ptr %7, align 4, !tbaa !9
  %30 = icmp slt i32 %29, 0
  br i1 %30, label %31, label %38

31:                                               ; preds = %28
  %32 = load ptr, ptr %5, align 8, !tbaa !3
  %33 = getelementptr inbounds nuw %struct._priv_exr_context_t, ptr %32, i32 0, i32 14
  %34 = load ptr, ptr %33, align 8, !tbaa !27
  %35 = load ptr, ptr %5, align 8, !tbaa !3
  %36 = load i32, ptr %7, align 4, !tbaa !9
  %37 = call i32 (ptr, i32, ptr, ...) %34(ptr noundef %35, i32 noundef 3, ptr noundef @.str.1, i32 noundef %36)
  store i32 %37, ptr %4, align 4
  store i32 1, ptr %11, align 4
  br label %96

38:                                               ; preds = %28
  %39 = load i64, ptr %10, align 8, !tbaa !11
  %40 = icmp ugt i64 %39, 2147483647
  br i1 %40, label %41, label %48

41:                                               ; preds = %38
  %42 = load ptr, ptr %5, align 8, !tbaa !3
  %43 = getelementptr inbounds nuw %struct._priv_exr_context_t, ptr %42, i32 0, i32 14
  %44 = load ptr, ptr %43, align 8, !tbaa !27
  %45 = load ptr, ptr %5, align 8, !tbaa !3
  %46 = load i32, ptr %7, align 4, !tbaa !9
  %47 = call i32 (ptr, i32, ptr, ...) %44(ptr noundef %45, i32 noundef 3, ptr noundef @.str.2, i32 noundef %46)
  store i32 %47, ptr %4, align 4
  store i32 1, ptr %11, align 4
  br label %96

48:                                               ; preds = %38
  %49 = load ptr, ptr %6, align 8, !tbaa !8
  call void @llvm.memcpy.p0.p0.i64(ptr align 8 %49, ptr align 8 %8, i64 16, i1 false), !tbaa.struct !28
  %50 = load i64, ptr %10, align 8, !tbaa !11
  %51 = icmp ugt i64 %50, 0
  br i1 %51, label %52, label %95

52:                                               ; preds = %48
  %53 = load ptr, ptr %5, align 8, !tbaa !3
  %54 = getelementptr inbounds nuw %struct._priv_exr_context_t, ptr %53, i32 0, i32 16
  %55 = load ptr, ptr %54, align 8, !tbaa !29
  %56 = load i64, ptr %10, align 8, !tbaa !11
  %57 = call ptr %55(i64 noundef %56)
  %58 = load ptr, ptr %6, align 8, !tbaa !8
  %59 = getelementptr inbounds nuw %struct.exr_attr_string_vector_t, ptr %58, i32 0, i32 2
  store ptr %57, ptr %59, align 8, !tbaa !30
  %60 = load ptr, ptr %6, align 8, !tbaa !8
  %61 = getelementptr inbounds nuw %struct.exr_attr_string_vector_t, ptr %60, i32 0, i32 2
  %62 = load ptr, ptr %61, align 8, !tbaa !30
  %63 = icmp eq ptr %62, null
  br i1 %63, label %64, label %70

64:                                               ; preds = %52
  %65 = load ptr, ptr %5, align 8, !tbaa !3
  %66 = getelementptr inbounds nuw %struct._priv_exr_context_t, ptr %65, i32 0, i32 12
  %67 = load ptr, ptr %66, align 8, !tbaa !32
  %68 = load ptr, ptr %5, align 8, !tbaa !3
  %69 = call i32 %67(ptr noundef %68, i32 noundef 1)
  store i32 %69, ptr %4, align 4
  store i32 1, ptr %11, align 4
  br label %96

70:                                               ; preds = %52
  %71 = load i32, ptr %7, align 4, !tbaa !9
  %72 = load ptr, ptr %6, align 8, !tbaa !8
  %73 = getelementptr inbounds nuw %struct.exr_attr_string_vector_t, ptr %72, i32 0, i32 0
  store i32 %71, ptr %73, align 8, !tbaa !33
  %74 = load i32, ptr %7, align 4, !tbaa !9
  %75 = load ptr, ptr %6, align 8, !tbaa !8
  %76 = getelementptr inbounds nuw %struct.exr_attr_string_vector_t, ptr %75, i32 0, i32 1
  store i32 %74, ptr %76, align 4, !tbaa !34
  call void @llvm.lifetime.start.p0(i64 4, ptr %12) #6
  store i32 0, ptr %12, align 4, !tbaa !9
  br label %77

77:                                               ; preds = %91, %70
  %78 = load i32, ptr %12, align 4, !tbaa !9
  %79 = load i32, ptr %7, align 4, !tbaa !9
  %80 = icmp slt i32 %78, %79
  br i1 %80, label %82, label %81

81:                                               ; preds = %77
  store i32 2, ptr %11, align 4
  call void @llvm.lifetime.end.p0(i64 4, ptr %12) #6
  br label %94

82:                                               ; preds = %77
  %83 = load ptr, ptr %6, align 8, !tbaa !8
  %84 = getelementptr inbounds nuw %struct.exr_attr_string_vector_t, ptr %83, i32 0, i32 2
  %85 = load ptr, ptr %84, align 8, !tbaa !30
  %86 = load i32, ptr %12, align 4, !tbaa !9
  %87 = sext i32 %86 to i64
  %88 = getelementptr inbounds %struct.exr_attr_string_t, ptr %85, i64 %87
  %89 = ptrtoint ptr %88 to i64
  %90 = inttoptr i64 %89 to ptr
  call void @llvm.memcpy.p0.p0.i64(ptr align 8 %90, ptr align 8 %9, i64 16, i1 false), !tbaa.struct !35
  br label %91

91:                                               ; preds = %82
  %92 = load i32, ptr %12, align 4, !tbaa !9
  %93 = add nsw i32 %92, 1
  store i32 %93, ptr %12, align 4, !tbaa !9
  br label %77, !llvm.loop !37

94:                                               ; preds = %81
  br label %95

95:                                               ; preds = %94, %48
  store i32 0, ptr %4, align 4
  store i32 1, ptr %11, align 4
  br label %96

96:                                               ; preds = %95, %64, %41, %31, %22, %18
  call void @llvm.lifetime.end.p0(i64 8, ptr %10) #6
  call void @llvm.lifetime.end.p0(i64 16, ptr %9) #6
  call void @llvm.lifetime.end.p0(i64 16, ptr %8) #6
  %97 = load i32, ptr %4, align 4
  ret i32 %97
}